target datalayout = "e-m:e-p270:32:32-p271:32:32-p272:64:64-i64:64-i128:128-f80:128-n8:16:32:64-S128"
target triple = "x86_64-pc-linux-gnu"

%class.btConvex2dConvex2dAlgorithm = type <{ %class.btActivatingCollisionAlgorithm, ptr, ptr, i8, [7 x i8], ptr, i8, [7 x i8] }>
%class.btActivatingCollisionAlgorithm = type { %class.btCollisionAlgorithm }
%class.btCollisionAlgorithm = type { ptr, ptr }

; Function Attrs: mustprogress uwtable
define dso_local void @_ZN27btConvex2dConvex2dAlgorithmC2EP20btPersistentManifoldRK36btCollisionAlgorithmConstructionInfoPK24btCollisionObjectWrapperS7_P22btVoronoiSimplexSolverP30btConvexPenetrationDepthSolverii(ptr noundef nonnull align 8 dereferenceable(49) %0, ptr noundef %1, ptr noundef nonnull align 8 dereferenceable(16) %2, ptr noundef %3, ptr noundef %4, ptr noundef %5, ptr noundef %6, i32 noundef %7, i32 noundef %8) unnamed_addr #2 align 2 {
  %10 = alloca ptr, align 8
  %11 = alloca ptr, align 8
  %12 = alloca ptr, align 8
  %13 = alloca ptr, align 8
  %14 = alloca ptr, align 8
  %15 = alloca ptr, align 8
  %16 = alloca ptr, align 8
  %17 = alloca i32, align 4
  %18 = alloca i32, align 4
  store ptr %0, ptr %10, align 8, !tbaa !28
  store ptr %1, ptr %11, align 8, !tbaa !30
  store ptr %2, ptr %12, align 8, !tbaa !32
  store ptr %3, ptr %13, align 8, !tbaa !34
  store ptr %4, ptr %14, align 8, !tbaa !34
  store ptr %5, ptr %15, align 8, !tbaa !14
  store ptr %6, ptr %16, align 8, !tbaa !16
  store i32 %7, ptr %17, align 4, !tbaa !9
  store i32 %8, ptr %18, align 4, !tbaa !9
  %19 = load ptr, ptr %10, align 8
  %20 = load ptr, ptr %12, align 8, !tbaa !32
  %21 = load ptr, ptr %13, align 8, !tbaa !34
  %22 = load ptr, ptr %14, align 8, !tbaa !34
  call void @_ZN30btActivatingCollisionAlgorithmC2ERK36btCollisionAlgorithmConstructionInfoPK24btCollisionObjectWrapperS5_(ptr noundef nonnull align 8 dereferenceable(16) %19, ptr noundef nonnull align 8 dereferenceable(16) %20, ptr noundef %21, ptr noundef %22)
  store ptr getelementptr inbounds inrange(-16, 40) ({ [7 x ptr] }, ptr @_ZTV27btConvex2dConvex2dAlgorithm, i32 0, i32 0, i32 2), ptr %19, align 8, !tbaa !18
  %23 = getelementptr inbounds nuw %class.btConvex2dConvex2dAlgorithm, ptr %19, i32 0, i32 1
  %24 = load ptr, ptr %15, align 8, !tbaa !14
  store ptr %24, ptr %23, align 8, !tbaa !36
  %25 = getelementptr inbounds nuw %class.btConvex2dConvex2dAlgorithm, ptr %19, i32 0, i32 2
  %26 = load ptr, ptr %16, align 8, !tbaa !16
  store ptr %26, ptr %25, align 8, !tbaa !41
  %27 = getelementptr inbounds nuw %class.btConvex2dConvex2dAlgorithm, ptr %19, i32 0, i32 3
  store i8 0, ptr %27, align 8, !tbaa !42
  %28 = getelementptr inbounds nuw %class.btConvex2dConvex2dAlgorithm, ptr %19, i32 0, i32 5
  %29 = load ptr, ptr %11, align 8, !tbaa !30
  store ptr %29, ptr %28, align 8, !tbaa !43
  %30 = getelementptr inbounds nuw %class.btConvex2dConvex2dAlgorithm, ptr %19, i32 0, i32 6
  store i8 0, ptr %30, align 8, !tbaa !44
  ret void
}