; Function Attrs: mustprogress uwtable
define dso_local void @_ZN27btConvex2dConvex2dAlgorithmC2EP20btPersistentManifoldRK36btCollisionAlgorithmConstructionInfoPK24btCollisionObjectWrapperS7_P22btVoronoiSimplexSolverP30btConvexPenetrationDepthSolverii(ptr noundef nonnull align 8 dereferenceable(49) %0, ptr noundef %1, ptr noundef nonnull align 8 dereferenceable(16) %2, ptr noundef %3, ptr noundef %4, ptr noundef %5, ptr noundef %6, i32 %7, i32 %8) unnamed_addr #4 align 2 {
  tail call void @_ZN30btActivatingCollisionAlgorithmC2ERK36btCollisionAlgorithmConstructionInfoPK24btCollisionObjectWrapperS5_(ptr noundef nonnull align 8 dereferenceable(16) %0, ptr noundef nonnull align 8 dereferenceable(16) %2, ptr noundef %3, ptr noundef %4)
  store ptr getelementptr inbounds nuw inrange(-16, 40) (i8, ptr @_ZTV27btConvex2dConvex2dAlgorithm, i64 16), ptr %0, align 8, !tbaa !9
  %10 = getelementptr inbounds nuw i8, ptr %0, i64 16
  store ptr %5, ptr %10, align 8, !tbaa !18
  %11 = getelementptr inbounds nuw i8, ptr %0, i64 24
  store ptr %6, ptr %11, align 8, !tbaa !24
  %12 = getelementptr inbounds nuw i8, ptr %0, i64 32
  store i8 0, ptr %12, align 8, !tbaa !25
  %13 = getelementptr inbounds nuw i8, ptr %0, i64 40
  store ptr %1, ptr %13, align 8, !tbaa !26
  %14 = getelementptr inbounds nuw i8, ptr %0, i64 48
  store i8 0, ptr %14, align 8, !tbaa !27
  ret void
}